target datalayout = "e-m:e-p270:32:32-p271:32:32-p272:64:64-i64:64-i128:128-f80:128-n8:16:32:64-S128"
target triple = "x86_64-pc-linux-gnu"

%struct.client = type { i64, i64, ptr, i8, i8, i8, i8, i32, ptr, ptr, ptr, ptr, ptr, i64, i64, i32, ptr, i32, i32, ptr, i64, ptr, ptr, ptr, ptr, ptr, i32, i32, i64, ptr, i64, ptr, i64, i64, i64, i32, ptr, i64, i64, i32, i32, i32, i32, i64, i64, ptr, i64, i64, i64, i64, i64, i64, i64, i64, [41 x i8], i32, ptr, i32, i32, i64, %struct.multiState, %struct.blockingState, i64, ptr, ptr, ptr, ptr, ptr, ptr, ptr, ptr, ptr, ptr, ptr, ptr, ptr, ptr, i64, ptr, i64, i32, ptr, ptr, ptr, i64, %struct.listNode, i64, i64, i32, i64, ptr }
%struct.multiState = type { ptr, i32, i32, i32, i64, i32 }
%struct.blockingState = type { i32, i64, i32, ptr, i32, i32, i64, ptr, ptr, i64 }
%struct.listNode = type { ptr, ptr, ptr }
%struct.redisObject = type { i32, i32, ptr }

@.str.1 = private unnamed_addr constant [12 x i8] c"255.255.255\00", align 1
@.str.4 = private unnamed_addr constant [8 x i8] c"version\00", align 1
@.str.5 = private unnamed_addr constant [7 x i8] c"%u.0.0\00", align 1

; Function Attrs: nounwind uwtable
define dso_local void @lolwutCommand(ptr noundef %0) #0 {
  %2 = alloca ptr, align 8
  %3 = alloca ptr, align 8
  %4 = alloca [64 x i8], align 16
  %5 = alloca i64, align 8
  %6 = alloca i32, align 4
  store ptr %0, ptr %2, align 8, !tbaa !5
  call void @llvm.lifetime.start.p0(i64 8, ptr %3) #9
  store ptr @.str.1, ptr %3, align 8, !tbaa !10
  call void @llvm.lifetime.start.p0(i64 64, ptr %4) #9
  %7 = load ptr, ptr %2, align 8, !tbaa !5
  %8 = getelementptr inbounds nuw %struct.client, ptr %7, i32 0, i32 15
  %9 = load i32, ptr %8, align 8, !tbaa !19
  %10 = icmp sge i32 %9, 3
  br i1 %10, label %11, label %48

11:                                               ; preds = %1
  %12 = load ptr, ptr %2, align 8, !tbaa !5
  %13 = getelementptr inbounds nuw %struct.client, ptr %12, i32 0, i32 16
  %14 = load ptr, ptr %13, align 8, !tbaa !36
  %15 = getelementptr inbounds ptr, ptr %14, i64 1
  %16 = load ptr, ptr %15, align 8, !tbaa !37
  %17 = getelementptr inbounds nuw %struct.redisObject, ptr %16, i32 0, i32 2
  %18 = load ptr, ptr %17, align 8, !tbaa !38
  %19 = call i32 @strcasecmp(ptr noundef %18, ptr noundef @.str.4) #10
  %20 = icmp ne i32 %19, 0
  br i1 %20, label %48, label %21

21:                                               ; preds = %11
  call void @llvm.lifetime.start.p0(i64 8, ptr %5) #9
  %22 = load ptr, ptr %2, align 8, !tbaa !5
  %23 = load ptr, ptr %2, align 8, !tbaa !5
  %24 = getelementptr inbounds nuw %struct.client, ptr %23, i32 0, i32 16
  %25 = load ptr, ptr %24, align 8, !tbaa !36
  %26 = getelementptr inbounds ptr, ptr %25, i64 2
  %27 = load ptr, ptr %26, align 8, !tbaa !37
  %28 = call i32 @getLongFromObjectOrReply(ptr noundef %22, ptr noundef %27, ptr noundef %5, ptr noundef null)
  %29 = icmp ne i32 %28, 0
  br i1 %29, label %30, label %31

30:                                               ; preds = %21
  store i32 1, ptr %6, align 4
  br label %45

31:                                               ; preds = %21
  %32 = getelementptr inbounds [64 x i8], ptr %4, i64 0, i64 0
  %33 = load i64, ptr %5, align 8, !tbaa !17
  %34 = trunc i64 %33 to i32
  %35 = call i32 (ptr, i64, ptr, ...) @snprintf(ptr noundef %32, i64 noundef 64, ptr noundef @.str.5, i32 noundef %34) #9
  %36 = getelementptr inbounds [64 x i8], ptr %4, i64 0, i64 0
  store ptr %36, ptr %3, align 8, !tbaa !10
  %37 = load ptr, ptr %2, align 8, !tbaa !5
  %38 = getelementptr inbounds nuw %struct.client, ptr %37, i32 0, i32 16
  %39 = load ptr, ptr %38, align 8, !tbaa !36
  %40 = getelementptr inbounds ptr, ptr %39, i64 2
  store ptr %40, ptr %38, align 8, !tbaa !36
  %41 = load ptr, ptr %2, align 8, !tbaa !5
  %42 = getelementptr inbounds nuw %struct.client, ptr %41, i32 0, i32 15
  %43 = load i32, ptr %42, align 8, !tbaa !19
  %44 = sub nsw i32 %43, 2
  store i32 %44, ptr %42, align 8, !tbaa !19
  store i32 0, ptr %6, align 4
  br label %45

45:                                               ; preds = %31, %30
  call void @llvm.lifetime.end.p0(i64 8, ptr %5) #9
  %46 = load i32, ptr %6, align 4
  switch i32 %46, label %141 [
    i32 0, label %47
  ]

47:                                               ; preds = %45
  br label %48

48:                                               ; preds = %47, %11, %1
  %49 = load ptr, ptr %3, align 8, !tbaa !10
  %50 = getelementptr inbounds i8, ptr %49, i64 0
  %51 = load i8, ptr %50, align 1, !tbaa !12
  %52 = sext i8 %51 to i32
  %53 = icmp eq i32 %52, 53
  br i1 %53, label %54, label %66

54:                                               ; preds = %48
  %55 = load ptr, ptr %3, align 8, !tbaa !10
  %56 = getelementptr inbounds i8, ptr %55, i64 1
  %57 = load i8, ptr %56, align 1, !tbaa !12
  %58 = sext i8 %57 to i32
  %59 = icmp eq i32 %58, 46
  br i1 %59, label %60, label %66

60:                                               ; preds = %54
  %61 = load ptr, ptr %3, align 8, !tbaa !10
  %62 = getelementptr inbounds i8, ptr %61, i64 2
  %63 = load i8, ptr %62, align 1, !tbaa !12
  %64 = sext i8 %63 to i32
  %65 = icmp ne i32 %64, 57
  br i1 %65, label %84, label %66

66:                                               ; preds = %60, %54, %48
  %67 = load ptr, ptr %3, align 8, !tbaa !10
  %68 = getelementptr inbounds i8, ptr %67, i64 0
  %69 = load i8, ptr %68, align 1, !tbaa !12
  %70 = sext i8 %69 to i32
  %71 = icmp eq i32 %70, 52
  br i1 %71, label %72, label %86

72:                                               ; preds = %66
  %73 = load ptr, ptr %3, align 8, !tbaa !10
  %74 = getelementptr inbounds i8, ptr %73, i64 1
  %75 = load i8, ptr %74, align 1, !tbaa !12
  %76 = sext i8 %75 to i32
  %77 = icmp eq i32 %76, 46
  br i1 %77, label %78, label %86

78:                                               ; preds = %72
  %79 = load ptr, ptr %3, align 8, !tbaa !10
  %80 = getelementptr inbounds i8, ptr %79, i64 2
  %81 = load i8, ptr %80, align 1, !tbaa !12
  %82 = sext i8 %81 to i32
  %83 = icmp eq i32 %82, 57
  br i1 %83, label %84, label %86

84:                                               ; preds = %78, %60
  %85 = load ptr, ptr %2, align 8, !tbaa !5
  call void @lolwut5Command(ptr noundef %85)
  br label %127

86:                                               ; preds = %78, %72, %66
  %87 = load ptr, ptr %3, align 8, !tbaa !10
  %88 = getelementptr inbounds i8, ptr %87, i64 0
  %89 = load i8, ptr %88, align 1, !tbaa !12
  %90 = sext i8 %89 to i32
  %91 = icmp eq i32 %90, 54
  br i1 %91, label %92, label %104

92:                                               ; preds = %86
  %93 = load ptr, ptr %3, align 8, !tbaa !10
  %94 = getelementptr inbounds i8, ptr %93, i64 1
  %95 = load i8, ptr %94, align 1, !tbaa !12
  %96 = sext i8 %95 to i32
  %97 = icmp eq i32 %96, 46
  br i1 %97, label %98, label %104

98:                                               ; preds = %92
  %99 = load ptr, ptr %3, align 8, !tbaa !10
  %100 = getelementptr inbounds i8, ptr %99, i64 2
  %101 = load i8, ptr %100, align 1, !tbaa !12
  %102 = sext i8 %101 to i32
  %103 = icmp ne i32 %102, 57
  br i1 %103, label %122, label %104

104:                                              ; preds = %98, %92, %86
  %105 = load ptr, ptr %3, align 8, !tbaa !10
  %106 = getelementptr inbounds i8, ptr %105, i64 0
  %107 = load i8, ptr %106, align 1, !tbaa !12
  %108 = sext i8 %107 to i32
  %109 = icmp eq i32 %108, 53
  br i1 %109, label %110, label %124

110:                                              ; preds = %104
  %111 = load ptr, ptr %3, align 8, !tbaa !10
  %112 = getelementptr inbounds i8, ptr %111, i64 1
  %113 = load i8, ptr %112, align 1, !tbaa !12
  %114 = sext i8 %113 to i32
  %115 = icmp eq i32 %114, 46
  br i1 %115, label %116, label %124

116:                                              ; preds = %110
  %117 = load ptr, ptr %3, align 8, !tbaa !10
  %118 = getelementptr inbounds i8, ptr %117, i64 2
  %119 = load i8, ptr %118, align 1, !tbaa !12
  %120 = sext i8 %119 to i32
  %121 = icmp eq i32 %120, 57
  br i1 %121, label %122, label %124

122:                                              ; preds = %116, %98
  %123 = load ptr, ptr %2, align 8, !tbaa !5
  call void @lolwut6Command(ptr noundef %123)
  br label %126

124:                                              ; preds = %116, %110, %104
  %125 = load ptr, ptr %2, align 8, !tbaa !5
  call void @lolwutUnstableCommand(ptr noundef %125)
  br label %126

126:                                              ; preds = %124, %122
  br label %127

127:                                              ; preds = %126, %84
  %128 = load ptr, ptr %3, align 8, !tbaa !10
  %129 = getelementptr inbounds [64 x i8], ptr %4, i64 0, i64 0
  %130 = icmp eq ptr %128, %129
  br i1 %130, label %131, label %140

131:                                              ; preds = %127
  %132 = load ptr, ptr %2, align 8, !tbaa !5
  %133 = getelementptr inbounds nuw %struct.client, ptr %132, i32 0, i32 16
  %134 = load ptr, ptr %133, align 8, !tbaa !36
  %135 = getelementptr inbounds ptr, ptr %134, i64 -2
  store ptr %135, ptr %133, align 8, !tbaa !36
  %136 = load ptr, ptr %2, align 8, !tbaa !5
  %137 = getelementptr inbounds nuw %struct.client, ptr %136, i32 0, i32 15
  %138 = load i32, ptr %137, align 8, !tbaa !19
  %139 = add nsw i32 %138, 2
  store i32 %139, ptr %137, align 8, !tbaa !19
  br label %140

140:                                              ; preds = %131, %127
  store i32 0, ptr %6, align 4
  br label %141

141:                                              ; preds = %140, %45
  call void @llvm.lifetime.end.p0(i64 64, ptr %4) #9
  call void @llvm.lifetime.end.p0(i64 8, ptr %3) #9
  %142 = load i32, ptr %6, align 4
  switch i32 %142, label %144 [
    i32 0, label %143
    i32 1, label %143
  ]

143:                                              ; preds = %141, %141
  ret void

144:                                              ; preds = %141
  unreachable
}